target datalayout = "e-m:e-p270:32:32-p271:32:32-p272:64:64-i64:64-i128:128-f80:128-n8:16:32:64-S128"
target triple = "x86_64-pc-linux-gnu"

@hf_nfs4_pathname_components = internal global i32 0, align 4
@hf_nfs4_component = internal global i32 0, align 4
@hf_nfs4_fslocation = internal global i32 0, align 4
@ett_nfs4_pathname = internal global i32 0, align 4
@ett_nfs4_fs_locations = internal global i32 0, align 4

; Function Attrs: null_pointer_is_valid sspstrong uwtable
define internal i32 @dissect_nfs_utf8string(ptr noundef %0, i32 noundef %1, ptr noundef %2, i32 noundef %3, ptr noundef %4) #0 {
  %6 = alloca ptr, align 8
  %7 = alloca i32, align 4
  %8 = alloca ptr, align 8
  %9 = alloca i32, align 4
  %10 = alloca ptr, align 8
  store ptr %0, ptr %6, align 8
  store i32 %1, ptr %7, align 4
  store ptr %2, ptr %8, align 8
  store i32 %3, ptr %9, align 4
  store ptr %4, ptr %10, align 8
  %11 = load ptr, ptr %6, align 8
  %12 = load ptr, ptr %8, align 8
  %13 = load i32, ptr %9, align 4
  %14 = load i32, ptr %7, align 4
  %15 = load ptr, ptr %10, align 8
  %16 = call i32 @dissect_rpc_string(ptr noundef %11, ptr noundef %12, i32 noundef %13, i32 noundef %14, ptr noundef %15)
  ret i32 %16
}

; Function Attrs: null_pointer_is_valid sspstrong uwtable
define internal i32 @dissect_nfs4_pathname(ptr noundef %0, i32 noundef %1, ptr noundef %2) #0 {
  %4 = alloca ptr, align 8
  %5 = alloca i32, align 4
  %6 = alloca ptr, align 8
  %7 = alloca i32, align 4
  %8 = alloca i32, align 4
  %9 = alloca ptr, align 8
  %10 = alloca ptr, align 8
  store ptr %0, ptr %4, align 8
  store i32 %1, ptr %5, align 4
  store ptr %2, ptr %6, align 8
  call void @llvm.lifetime.start.p0(i64 4, ptr %7) #16
  call void @llvm.lifetime.start.p0(i64 4, ptr %8) #16
  call void @llvm.lifetime.start.p0(i64 8, ptr %9) #16
  call void @llvm.lifetime.start.p0(i64 8, ptr %10) #16
  %11 = load ptr, ptr %6, align 8
  %12 = load i32, ptr @hf_nfs4_pathname_components, align 4
  %13 = load ptr, ptr %4, align 8
  %14 = load i32, ptr %5, align 4
  %15 = call ptr @proto_tree_add_item_ret_uint(ptr noundef %11, i32 noundef %12, ptr noundef %13, i32 noundef %14, i32 noundef 4, i32 noundef 0, ptr noundef %7)
  store ptr %15, ptr %9, align 8
  %16 = load i32, ptr %5, align 4
  %17 = add i32 %16, 4
  store i32 %17, ptr %5, align 4
  %18 = load ptr, ptr %9, align 8
  %19 = load i32, ptr @ett_nfs4_pathname, align 4
  %20 = call ptr @proto_item_add_subtree(ptr noundef %18, i32 noundef %19)
  store ptr %20, ptr %10, align 8
  store i32 0, ptr %8, align 4
  br label %21

21:                                               ; preds = %31, %3
  %22 = load i32, ptr %8, align 4
  %23 = load i32, ptr %7, align 4
  %24 = icmp ult i32 %22, %23
  br i1 %24, label %25, label %34

25:                                               ; preds = %21
  %26 = load ptr, ptr %4, align 8
  %27 = load i32, ptr %5, align 4
  %28 = load ptr, ptr %10, align 8
  %29 = load i32, ptr @hf_nfs4_component, align 4
  %30 = call i32 @dissect_nfs_utf8string(ptr noundef %26, i32 noundef %27, ptr noundef %28, i32 noundef %29, ptr noundef null)
  store i32 %30, ptr %5, align 4
  br label %31

31:                                               ; preds = %25
  %32 = load i32, ptr %8, align 4
  %33 = add i32 %32, 1
  store i32 %33, ptr %8, align 4
  br label %21, !llvm.loop !33

34:                                               ; preds = %21
  %35 = load i32, ptr %5, align 4
  call void @llvm.lifetime.end.p0(i64 8, ptr %10) #16
  call void @llvm.lifetime.end.p0(i64 8, ptr %9) #16
  call void @llvm.lifetime.end.p0(i64 4, ptr %8) #16
  call void @llvm.lifetime.end.p0(i64 4, ptr %7) #16
  ret i32 %35
}

; Function Attrs: null_pointer_is_valid sspstrong uwtable
define internal i32 @dissect_nfs4_fs_locations(ptr noundef %0, ptr noundef %1, i32 noundef %2, ptr noundef %3, ptr noundef %4) #0 {
  %6 = alloca ptr, align 8
  %7 = alloca ptr, align 8
  %8 = alloca i32, align 4
  %9 = alloca ptr, align 8
  %10 = alloca ptr, align 8
  %11 = alloca ptr, align 8
  store ptr %0, ptr %6, align 8
  store ptr %1, ptr %7, align 8
  store i32 %2, ptr %8, align 4
  store ptr %3, ptr %9, align 8
  store ptr %4, ptr %10, align 8
  call void @llvm.lifetime.start.p0(i64 8, ptr %11) #16
  %12 = load ptr, ptr %9, align 8
  %13 = load ptr, ptr %6, align 8
  %14 = load i32, ptr %8, align 4
  %15 = load i32, ptr @ett_nfs4_fs_locations, align 4
  %16 = load ptr, ptr %10, align 8
  %17 = call ptr @proto_tree_add_subtree(ptr noundef %12, ptr noundef %13, i32 noundef %14, i32 noundef 0, i32 noundef %15, ptr noundef null, ptr noundef %16)
  store ptr %17, ptr %11, align 8
  %18 = load ptr, ptr %6, align 8
  %19 = load i32, ptr %8, align 4
  %20 = load ptr, ptr %11, align 8
  %21 = call i32 @dissect_nfs4_pathname(ptr noundef %18, i32 noundef %19, ptr noundef %20)
  store i32 %21, ptr %8, align 4
  %22 = load ptr, ptr %6, align 8
  %23 = load ptr, ptr %7, align 8
  %24 = load ptr, ptr %11, align 8
  %25 = load i32, ptr %8, align 4
  %26 = load i32, ptr @hf_nfs4_fslocation, align 4
  %27 = call i32 @dissect_rpc_array(ptr noundef %22, ptr noundef %23, ptr noundef %24, i32 noundef %25, ptr noundef @dissect_nfs4_fs_location, i32 noundef %26)
  store i32 %27, ptr %8, align 4
  %28 = load i32, ptr %8, align 4
  call void @llvm.lifetime.end.p0(i64 8, ptr %11) #16
  ret i32 %28
}