; Function Attrs: null_pointer_is_valid sspstrong uwtable
define internal fastcc i32 @dissect_nfs4_fs_locations(ptr noundef %0, ptr noundef %1, i32 noundef %2, ptr noundef %3) unnamed_addr #0 {
  %5 = alloca i32, align 4
  %6 = load i32, ptr @ett_nfs4_fs_locations, align 4
  %7 = tail call ptr @proto_tree_add_subtree(ptr noundef %3, ptr noundef %0, i32 noundef %2, i32 noundef 0, i32 noundef %6, ptr noundef null, ptr noundef nonnull @.str.2398)
  call void @llvm.lifetime.start.p0(i64 4, ptr nonnull %5) #22
  %8 = load i32, ptr @hf_nfs4_pathname_components, align 4
  %9 = call ptr @proto_tree_add_item_ret_uint(ptr noundef %7, i32 noundef %8, ptr noundef %0, i32 noundef %2, i32 noundef 4, i32 noundef 0, ptr noundef nonnull %5)
  %10 = add i32 %2, 4
  %11 = load i32, ptr @ett_nfs4_pathname, align 4
  %12 = call ptr @proto_item_add_subtree(ptr noundef %9, i32 noundef %11)
  %13 = load i32, ptr %5, align 4
  %.not.i = icmp eq i32 %13, 0
  br i1 %.not.i, label %dissect_nfs4_pathname.exit, label %.lr.ph.i

.lr.ph.i:                                         ; preds = %4, %.lr.ph.i
  %.012.i = phi i32 [ %15, %.lr.ph.i ], [ %10, %4 ]
  %.01011.i = phi i32 [ %16, %.lr.ph.i ], [ 0, %4 ]
  %14 = load i32, ptr @hf_nfs4_component, align 4
  %15 = call i32 @dissect_rpc_string(ptr noundef %0, ptr noundef %12, i32 noundef %14, i32 noundef %.012.i, ptr noundef null)
  %16 = add nuw i32 %.01011.i, 1
  %17 = load i32, ptr %5, align 4
  %18 = icmp ult i32 %16, %17
  br i1 %18, label %.lr.ph.i, label %dissect_nfs4_pathname.exit, !llvm.loop !35

dissect_nfs4_pathname.exit:                       ; preds = %.lr.ph.i, %4
  %.0.lcssa.i = phi i32 [ %10, %4 ], [ %15, %.lr.ph.i ]
  call void @llvm.lifetime.end.p0(i64 4, ptr nonnull %5) #22
  %19 = load i32, ptr @hf_nfs4_fslocation, align 4
  %20 = call i32 @dissect_rpc_array(ptr noundef %0, ptr noundef %1, ptr noundef %7, i32 noundef %.0.lcssa.i, ptr noundef nonnull @dissect_nfs4_fs_location, i32 noundef %19)
  ret i32 %20
}